; Function Attrs: nofree norecurse nosync nounwind memory(argmem: readwrite) uwtable
define internal void @SDL_ConvertMonoToStereo(ptr noundef writeonly captures(none) %0, ptr noundef readonly captures(none) %1, i32 noundef %2) #5 {
  %.not15 = icmp eq i32 %2, 0
  br i1 %.not15, label %._crit_edge, label %.lr.ph.preheader

.lr.ph.preheader:                                 ; preds = %3
  %4 = add nsw i32 %2, -1
  %5 = shl nsw i32 %4, 1
  %6 = sext i32 %5 to i64
  %7 = getelementptr inbounds float, ptr %0, i64 %6
  %8 = sext i32 %4 to i64
  %9 = getelementptr inbounds float, ptr %1, i64 %8
  br label %.lr.ph

.lr.ph:                                           ; preds = %.lr.ph.preheader, %.lr.ph
  %.018 = phi ptr [ %14, %.lr.ph ], [ %7, %.lr.ph.preheader ]
  %.01317 = phi i32 [ %12, %.lr.ph ], [ %2, %.lr.ph.preheader ]
  %.01416 = phi ptr [ %13, %.lr.ph ], [ %9, %.lr.ph.preheader ]
  %10 = load float, ptr %.01416, align 4
  %11 = getelementptr inbounds nuw i8, ptr %.018, i64 4
  store float %10, ptr %11, align 4
  store float %10, ptr %.018, align 4
  %12 = add nsw i32 %.01317, -1
  %13 = getelementptr inbounds i8, ptr %.01416, i64 -4
  %14 = getelementptr inbounds i8, ptr %.018, i64 -8
  %.not = icmp eq i32 %12, 0
  br i1 %.not, label %._crit_edge, label %.lr.ph, !llvm.loop !34

._crit_edge:                                      ; preds = %.lr.ph, %3
  ret void
}